(dp0
S'METTS MARK'
p1
(dp2
S'to_messages'
p3
I807
sS'deferral_payments'
p4
S'NaN'
p5
sS'expenses'
p6
I94299
sS'to_POI_percent'
p7
cnumpy.core.multiarray
scalar
p8
(cnumpy
dtype
p9
(S'f8'
p10
I0
I1
tp11
Rp12
(I3
S'<'
p13
NNNI-1
I-1
I0
tp14
bS'\xbd\x86\xf2\x1a\xcak\xe8?'
p15
tp16
Rp17
sS'poi'
p18
I00
sS'deferred_income'
p19
g5
sS'email_address'
p20
S'mark.metts@enron.com'
p21
sS'long_term_incentive'
p22
g5
sS'restricted_stock_deferred'
p23
g5
sS'shared_receipt_with_poi'
p24
I702
sS'loan_advances'
p25
g5
sS'from_messages'
p26
I29
sS'other'
p27
I1740
sS'director_fees'
p28
g5
sS'bonus'
p29
I600000
sS'total_stock_value'
p30
I585062
sS'from_POI_percent'
p31
I0
sS'from_poi_to_this_person'
p32
I38
sS'from_this_person_to_poi'
p33
I1
sS'restricted_stock'
p34
I585062
sS'salary'
p35
I365788
sS'total_payments'
p36
I1061827
sS'exercised_stock_options'
p37
g5
sS'PCA1'
p38
g8
(g12
S'S\xf6\xc7\x0f\xc4\tEA'
p39
tp40
Rp41
ssS'BAXTER JOHN C'
p42
(dp43
g3
g5
sg4
I1295738
sg6
I11200
sg7
I0
sg18
I00
sg19
I-1386055
sg20
g5
sg22
I1586055
sg23
g5
sg24
g5
sg25
g5
sg26
g5
sg27
I2660303
sg28
g5
sg29
I1200000
sg30
I10623258
sg31
I0
sg32
g5
sg33
g5
sg34
I3942714
sg35
I267102
sg36
I5634343
sg37
I6680544
sg38
g8
(g12
S'\x01\x02^E\x83\xdfZ\xc1'
p44
tp45
Rp46
ssS'ELLIOTT STEVEN'
p47
(dp48
g3
g5
sg4
g5
sg6
I78552
sg7
I0
sg18
I00
sg19
I-400729
sg20
S'steven.elliott@enron.com'
p49
sg22
g5
sg23
g5
sg24
g5
sg25
g5
sg26
g5
sg27
I12961
sg28
g5
sg29
I350000
sg30
I6678735
sg31
I0
sg32
g5
sg33
g5
sg34
I1788391
sg35
I170941
sg36
I211725
sg37
I4890344
sg38
g8
(g12
S'\x13\xecD\xba\xd9\xe2$\xc1'
p50
tp51
Rp52
ssS'CORDES WILLIAM R'
p53
(dp54
g3
I764
sg4
g5
sg6
g5
sg7
g8
(g12
S'333333\xf3?'
p55
tp56
Rp57
sg18
I00
sg19
g5
sg20
S'bill.cordes@enron.com'
p58
sg22
g5
sg23
g5
sg24
I58
sg25
g5
sg26
I12
sg27
g5
sg28
g5
sg29
g5
sg30
I1038185
sg31
I0
sg32
I10
sg33
I0
sg34
I386335
sg35
g5
sg36
g5
sg37
I651850
sg38
g8
(g12
S'\xe4\x0b\xb8\x95!%HA'
p59
tp60
Rp61
ssS'HANNON KEVIN P'
p62
(dp63
g3
I1045
sg4
g5
sg6
I34039
sg7
g8
(g12
S'\x00\x00\x00\x00\x00\x00\xf0?'
p64
tp65
Rp66
sg18
I01
sg19
I-3117011
sg20
S'kevin.hannon@enron.com'
p67
sg22
I1617011
sg23
g5
sg24
I1035
sg25
g5
sg26
I32
sg27
I11350
sg28
g5
sg29
I1500000
sg30
I6391065
sg31
g8
(g12
S'\x00\x00\x00\x00\x00T\x90@'
p68
tp69
Rp70
sg32
I32
sg33
I21
sg34
I853064
sg35
I243293
sg36
I288682
sg37
I5538001
sg38
g8
(g12
S'\xea\x98\xd2\xf3\x8eV)\xc1'
p71
tp72
Rp73
ssS'MORDAUNT KRISTINA M'
p74
(dp75
g3
g5
sg4
g5
sg6
I35018
sg7
I0
sg18
I00
sg19
g5
sg20
S'kristina.mordaunt@enron.com'
p76
sg22
g5
sg23
g5
sg24
g5
sg25
g5
sg26
g5
sg27
I1411
sg28
g5
sg29
I325000
sg30
I208510
sg31
I0
sg32
g5
sg33
g5
sg34
I208510
sg35
I267093
sg36
I628522
sg37
g5
sg38
g8
(g12
S'\xbcJ\r==\xe5HA'
p77
tp78
Rp79
ssS'MEYER ROCKFORD G'
p80
(dp81
g3
I232
sg4
I1848227
sg6
g5
sg7
I0
sg18
I00
sg19
g5
sg20
S'rockford.meyer@enron.com'
p82
sg22
g5
sg23
g5
sg24
I22
sg25
g5
sg26
I28
sg27
g5
sg28
g5
sg29
g5
sg30
I955873
sg31
I0
sg32
I0
sg33
I0
sg34
I462384
sg35
g5
sg36
I1848227
sg37
I493489
sg38
g8
(g12
S'@\x8bG\x08 \xf4=A'
p83
tp84
Rp85
ssS'MCMAHON JEFFREY'
p86
(dp87
g3
I2355
sg4
g5
sg6
I137108
sg7
g8
(g12
S'a\xb9\xa7\x11\x96{\xea?'
p88
tp89
Rp90
sg18
I00
sg19
g5
sg20
S'jeffrey.mcmahon@enron.com'
p91
sg22
I694862
sg23
g5
sg24
I2228
sg25
g5
sg26
I48
sg27
I297353
sg28
g5
sg29
I2600000
sg30
I1662855
sg31
I0
sg32
I58
sg33
I26
sg34
I558801
sg35
I370448
sg36
I4099771
sg37
I1104054
sg38
g8
(g12
S'\xf0\xa8\x97\xafq\xa0\n\xc1'
p92
tp93
Rp94
ssS'HORTON STANLEY C'
p95
(dp96
g3
I2350
sg4
I3131860
sg6
g5
sg7
g8
(g12
S'\xa3\x8b.\xba\xe8b8@'
p97
tp98
Rp99
sg18
I00
sg19
g5
sg20
S'stanley.horton@enron.com'
p100
sg22
g5
sg23
g5
sg24
I1074
sg25
g5
sg26
I1073
sg27
g5
sg28
g5
sg29
g5
sg30
I7256648
sg31
I0
sg32
I44
sg33
I15
sg34
I2046079
sg35
g5
sg36
I3131860
sg37
I5210569
sg38
g8
(g12
S'\xec\x16\x93\x1a7\x1dG\xc1'
p101
tp102
Rp103
ssS'PIPER GREGORY F'
p104
(dp105
g3
I1238
sg4
I1130036
sg6
I43057
sg7
g8
(g12
S'~\x8aK\x86`\x1d\r@'
p106
tp107
Rp108
sg18
I00
sg19
I-33333
sg20
S'greg.piper@enron.com'
p109
sg22
g5
sg23
I-409554
sg24
I742
sg25
g5
sg26
I222
sg27
I778
sg28
g5
sg29
I400000
sg30
I880290
sg31
I0
sg32
I61
sg33
I48
sg34
I409554
sg35
I197091
sg36
I1737629
sg37
I880290
sg38
g8
(g12
S'A\x96U{V\xaf=A'
p110
tp111
Rp112
ssS'HUMPHREY GENE E'
p113
(dp114
g3
I128
sg4
I2964506
sg6
I4994
sg7
g8
(g12
S'333333\xfb?'
p115
tp116
Rp117
sg18
I00
sg19
g5
sg20
S'gene.humphrey@enron.com'
p118
sg22
g5
sg23
g5
sg24
I119
sg25
g5
sg26
I17
sg27
g5
sg28
g5
sg29
g5
sg30
I2282768
sg31
I0
sg32
I10
sg33
I17
sg34
g5
sg35
I130724
sg36
I3100224
sg37
I2282768
sg38
g8
(g12
S'\x8b\xcexYg\\\xf6@'
p119
tp120
Rp121
ssS'UMANOFF ADAM S'
p122
(dp123
g3
I111
sg4
g5
sg6
I53122
sg7
g8
(g12
S'\x00\x00\x00\x00\x00\x00\xf8?'
p124
tp125
Rp126
sg18
I00
sg19
g5
sg20
S'adam.umanoff@enron.com'
p127
sg22
g5
sg23
g5
sg24
I41
sg25
g5
sg26
I18
sg27
g5
sg28
g5
sg29
I788750
sg30
g5
sg31
I0
sg32
I12
sg33
I0
sg34
g5
sg35
I288589
sg36
I1130461
sg37
g5
sg38
g8
(g12
S"\xbe3'0\xc7\xeaFA"
p128
tp129
Rp130
ssS'BLACHMAN JEREMY M'
p131
(dp132
g3
I2475
sg4
g5
sg6
I84208
sg7
g8
(g12
S'\xecQ\xb8\x1e\x85\xeb\xe1?'
p133
tp134
Rp135
sg18
I00
sg19
g5
sg20
S'jeremy.blachman@enron.com'
p136
sg22
I831809
sg23
g5
sg24
I2326
sg25
g5
sg26
I14
sg27
I272
sg28
g5
sg29
I850000
sg30
I954354
sg31
I0
sg32
I25
sg33
I2
sg34
I189041
sg35
I248546
sg36
I2014835
sg37
I765313
sg38
g8
(g12
S'\xe6`\xdc\xa9\x0f\x9a:A'
p137
tp138
Rp139
ssS'SUNDE MARTIN'
p140
(dp141
g3
I2647
sg4
g5
sg6
g5
sg7
g8
(g12
S'\xeb\x06S\xe4\xb3n\xf0?'
p142
tp143
Rp144
sg18
I00
sg19
g5
sg20
S'marty.sunde@enron.com'
p145
sg22
I476451
sg23
g5
sg24
I2565
sg25
g5
sg26
I38
sg27
I111122
sg28
g5
sg29
I700000
sg30
I698920
sg31
I0
sg32
I37
sg33
I13
sg34
I698920
sg35
I257486
sg36
I1545059
sg37
g5
sg38
g8
(g12
S'\x9e\xee\x01\xd1N\xe1AA'
p146
tp147
Rp148
ssS'GIBBS DANA R'
p149
(dp150
g3
I169
sg4
I504610
sg6
g5
sg7
I0
sg18
I00
sg19
g5
sg20
S'dana.gibbs@enron.com'
p151
sg22
I461912
sg23
g5
sg24
I23
sg25
g5
sg26
I12
sg27
g5
sg28
g5
sg29
g5
sg30
I2218275
sg31
I0
sg32
I0
sg33
I0
sg34
g5
sg35
g5
sg36
I966522
sg37
I2218275
sg38
g8
(g12
S'\x15\x05\xa6\xed\xbf\\8A'
p152
tp153
Rp154
ssS'LOWRY CHARLES P'
p155
(dp156
g3
g5
sg4
g5
sg6
g5
sg7
I0
sg18
I00
sg19
g5
sg20
g5
sg22
g5
sg23
I-153686
sg24
g5
sg25
g5
sg26
g5
sg27
g5
sg28
g5
sg29
g5
sg30
I372205
sg31
I0
sg32
g5
sg33
g5
sg34
I153686
sg35
g5
sg36
g5
sg37
I372205
sg38
g8
(g12
S'\x9e\xb4A\xa9\xec\x07KA'
p157
tp158
Rp159
ssS'COLWELL WESLEY'
p160
(dp161
g3
I1758
sg4
I27610
sg6
I16514
sg7
g8
(g12
S'UUUUUU\xc5?'
p162
tp163
Rp164
sg18
I01
sg19
I-144062
sg20
S'wes.colwell@enron.com'
p165
sg22
g5
sg23
g5
sg24
I1132
sg25
g5
sg26
I40
sg27
I101740
sg28
g5
sg29
I1200000
sg30
I698242
sg31
g8
(g12
S'\x00\x00\x00\x00\x00x\x9b@'
p166
tp167
Rp168
sg32
I240
sg33
I11
sg34
I698242
sg35
I288542
sg36
I1490344
sg37
g5
sg38
g8
(g12
S'\x86\xf3g\x17\xf2\x0eBA'
p169
tp170
Rp171
ssS'MULLER MARK S'
p172
(dp173
g3
I136
sg4
I842924
sg6
g5
sg7
g8
(g12
S'UUUUUU\xf5?'
p174
tp175
Rp176
sg18
I00
sg19
I-719000
sg20
S's..muller@enron.com'
p177
sg22
I1725545
sg23
g5
sg24
I114
sg25
g5
sg26
I16
sg27
I947
sg28
g5
sg29
I1100000
sg30
I1416848
sg31
I0
sg32
I12
sg33
I0
sg34
I360528
sg35
I251654
sg36
I3202070
sg37
I1056320
sg38
g8
(g12
S'\xb6\xf6\xb0\x98\x19\x1d"A'
p178
tp179
Rp180
ssS'JACKSON CHARLENE R'
p181
(dp182
g3
I258
sg4
g5
sg6
I10181
sg7
g8
(g12
S'\xecQ\xb8\x1e\x85\xeb\x01@'
p183
tp184
Rp185
sg18
I00
sg19
g5
sg20
S'charlene.jackson@enron.com'
p186
sg22
g5
sg23
g5
sg24
I117
sg25
g5
sg26
I56
sg27
I2435
sg28
g5
sg29
I250000
sg30
I725735
sg31
I0
sg32
I25
sg33
I19
sg34
I540672
sg35
I288558
sg36
I551174
sg37
I185063
sg38
g8
(g12
S'H"\xb1\x834\x08GA'
p187
tp188
Rp189
ssS'WESTFAHL RICHARD K'
p190
(dp191
g3
g5
sg4
g5
sg6
I51870
sg7
I0
sg18
I00
sg19
I-10800
sg20
S'dick.westfahl@enron.com'
p192
sg22
I256191
sg23
g5
sg24
g5
sg25
g5
sg26
g5
sg27
I401130
sg28
g5
sg29
g5
sg30
I384930
sg31
I0
sg32
g5
sg33
g5
sg34
I384930
sg35
I63744
sg36
I762135
sg37
g5
sg38
g8
(g12
S'#\xa3/\x10\xc9^GA'
p193
tp194
Rp195
ssS'WALTERS GARETH W'
p196
(dp197
g3
g5
sg4
I53625
sg6
I33785
sg7
I0
sg18
I00
sg19
g5
sg20
g5
sg22
g5
sg23
g5
sg24
g5
sg25
g5
sg26
g5
sg27
g5
sg28
g5
sg29
g5
sg30
I1030329
sg31
I0
sg32
g5
sg33
g5
sg34
g5
sg35
g5
sg36
I87410
sg37
I1030329
sg38
g8
(g12
S'We5\x01S2GA'
p198
tp199
Rp200
ssS'WALLS JR ROBERT H'
p201
(dp202
g3
I671
sg4
g5
sg6
I50936
sg7
g8
(g12
S'------!@'
p203
tp204
Rp205
sg18
I00
sg19
g5
sg20
S'rob.walls@enron.com'
p206
sg22
I540751
sg23
g5
sg24
I215
sg25
g5
sg26
I146
sg27
I2
sg28
g5
sg29
I850000
sg30
I5898997
sg31
I0
sg32
I17
sg33
I0
sg34
I1552453
sg35
I357091
sg36
I1798780
sg37
I4346544
sg38
g8
(g12
S'\xc6\xd7\xdaP\\\xe83\xc1'
p207
tp208
Rp209
ssS'KITCHEN LOUISE'
p210
(dp211
g3
I8305
sg4
g5
sg6
I5774
sg7
g8
(g12
S"\xc7';r\xb0\x89\x1b@"
p212
tp213
Rp214
sg18
I00
sg19
g5
sg20
S'louise.kitchen@enron.com'
p215
sg22
g5
sg23
g5
sg24
I3669
sg25
g5
sg26
I1728
sg27
I93925
sg28
g5
sg29
I3100000
sg30
I547143
sg31
I0
sg32
I251
sg33
I194
sg34
I466101
sg35
I271442
sg36
I3471141
sg37
I81042
sg38
g8
(g12
S'B*W\xf2\xe5\xea-A'
p216
tp217
Rp218
ssS'CHAN RONNIE'
p219
(dp220
g3
g5
sg4
g5
sg6
g5
sg7
I0
sg18
I00
sg19
I-98784
sg20
g5
sg22
g5
sg23
I-32460
sg24
g5
sg25
g5
sg26
g5
sg27
g5
sg28
I98784
sg29
g5
sg30
g5
sg31
I0
sg32
g5
sg33
g5
sg34
I32460
sg35
g5
sg36
g5
sg37
g5
sg38
g8
(g12
S'\xd2s\xc4\xa3\x08\x1bMA'
p221
tp222
Rp223
ssS'BELFER ROBERT'
p224
(dp225
g3
g5
sg4
I-102500
sg6
g5
sg7
I0
sg18
I00
sg19
g5
sg20
g5
sg22
g5
sg23
I44093
sg24
g5
sg25
g5
sg26
g5
sg27
g5
sg28
I3285
sg29
g5
sg30
I-44093
sg31
I0
sg32
g5
sg33
g5
sg34
g5
sg35
g5
sg36
I102500
sg37
I3285
sg38
g8
(g12
S'\xf7\x1f\x05,\x89\xbcLA'
p226
tp227
Rp228
ssS'SHANKMAN JEFFREY A'
p229
(dp230
g3
I3221
sg4
g5
sg6
I178979
sg7
g8
(g12
S'\xc4\xe4\nbr\x85<@'
p231
tp232
Rp233
sg18
I00
sg19
g5
sg20
S'jeffrey.shankman@enron.com'
p234
sg22
I554422
sg23
g5
sg24
I1730
sg25
g5
sg26
I2681
sg27
I1191
sg28
g5
sg29
I2000000
sg30
I2072035
sg31
I0
sg32
I94
sg33
I83
sg34
I630137
sg35
I304110
sg36
I3038702
sg37
I1441898
sg38
g8
(g12
S'\x96\xc5\xb0\xb1q\xc4\x11A'
p235
tp236
Rp237
ssS'WODRASKA JOHN'
p238
(dp239
g3
g5
sg4
g5
sg6
g5
sg7
I0
sg18
I00
sg19
g5
sg20
S'john.wodraska@enron.com'
p240
sg22
g5
sg23
g5
sg24
g5
sg25
g5
sg26
g5
sg27
I189583
sg28
g5
sg29
g5
sg30
g5
sg31
I0
sg32
g5
sg33
g5
sg34
g5
sg35
g5
sg36
I189583
sg37
g5
sg38
g8
(g12
S'\n\xea\xb4-P\x0bLA'
p241
tp242
Rp243
ssS'BERGSIEKER RICHARD P'
p244
(dp245
g3
I383
sg4
g5
sg6
I59175
sg7
g8
(g12
S'\x00\x00\x00\x00\x00\x80-@'
p246
tp247
Rp248
sg18
I00
sg19
I-485813
sg20
S'rick.bergsieker@enron.com'
p249
sg22
I180250
sg23
g5
sg24
I233
sg25
g5
sg26
I59
sg27
I427316
sg28
g5
sg29
I250000
sg30
I659249
sg31
I0
sg32
I4
sg33
I0
sg34
I659249
sg35
I187922
sg36
I618850
sg37
g5
sg38
g8
(g12
S'~C\t\xb3\x99\xe6FA'
p250
tp251
Rp252
ssS'URQUHART JOHN A'
p253
(dp254
g3
g5
sg4
g5
sg6
I228656
sg7
I0
sg18
I00
sg19
I-36666
sg20
g5
sg22
g5
sg23
g5
sg24
g5
sg25
g5
sg26
g5
sg27
g5
sg28
I36666
sg29
g5
sg30
g5
sg31
I0
sg32
g5
sg33
g5
sg34
g5
sg35
g5
sg36
I228656
sg37
g5
sg38
g8
(g12
S'\x88\xc6;M\xe1\xf1KA'
p255
tp256
Rp257
ssS'BIBI PHILIPPE A'
p258
(dp259
g3
I1607
sg4
g5
sg6
I38559
sg7
g8
(g12
S'\xbd\xe9Moz\xd3\xfb?'
p260
tp261
Rp262
sg18
I00
sg19
g5
sg20
S'philippe.bibi@enron.com'
p263
sg22
I369721
sg23
g5
sg24
I1336
sg25
g5
sg26
I40
sg27
I425688
sg28
g5
sg29
I1000000
sg30
I1843816
sg31
I0
sg32
I23
sg33
I8
sg34
I378082
sg35
I213625
sg36
I2047593
sg37
I1465734
sg38
g8
(g12
S'\xde\x9a\xc6\x07\xe4\xe90A'
p264
tp265
Rp266
ssS'RIEKER PAULA H'
p267
(dp268
g3
I1328
sg4
I214678
sg6
I33271
sg7
g8
(g12
S'\xe3+\xbe\xe2+\xbe\x02@'
p269
tp270
Rp271
sg18
I01
sg19
I-100000
sg20
S'paula.rieker@enron.com'
p272
sg22
g5
sg23
g5
sg24
I1258
sg25
g5
sg26
I82
sg27
I1950
sg28
g5
sg29
I700000
sg30
I1918887
sg31
g8
(g12
S'\x00\x00\x00\x00\x00\xc0\x94@'
p273
tp274
Rp275
sg32
I35
sg33
I48
sg34
I283649
sg35
I249201
sg36
I1099100
sg37
I1635238
sg38
g8
(g12
S'\x08\x19S\x1f\xe1\x8f:A'
p276
tp277
Rp278
ssS'WHALEY DAVID A'
p279
(dp280
g3
g5
sg4
g5
sg6
g5
sg7
I0
sg18
I00
sg19
g5
sg20
g5
sg22
g5
sg23
g5
sg24
g5
sg25
g5
sg26
g5
sg27
g5
sg28
g5
sg29
g5
sg30
I98718
sg31
I0
sg32
g5
sg33
g5
sg34
g5
sg35
g5
sg36
g5
sg37
I98718
sg38
g8
(g12
S' \x00U6\xa0\x9cLA'
p281
tp282
Rp283
ssS'BECK SALLY W'
p284
(dp285
g3
I7315
sg4
g5
sg6
I37172
sg7
g8
(g12
S'\x8e\xe38\x8e\xe3(>@'
p286
tp287
Rp288
sg18
I00
sg19
g5
sg20
S'sally.beck@enron.com'
p289
sg22
g5
sg23
g5
sg24
I2639
sg25
g5
sg26
I4343
sg27
I566
sg28
g5
sg29
I700000
sg30
I126027
sg31
I0
sg32
I144
sg33
I386
sg34
I126027
sg35
I231330
sg36
I969068
sg37
g5
sg38
g8
(g12
S'?\xa9H\xf6\x99LGA'
p290
tp291
Rp292
ssS'HAUG DAVID L'
p293
(dp294
g3
I573
sg4
g5
sg6
I475
sg7
g8
(g12
S'\x00\x00\x00\x00\x00\x00\x13@'
p295
tp296
Rp297
sg18
I00
sg19
g5
sg20
S'david.haug@enron.com'
p298
sg22
g5
sg23
g5
sg24
I471
sg25
g5
sg26
I19
sg27
g5
sg28
g5
sg29
g5
sg30
I2217299
sg31
I0
sg32
I4
sg33
I7
sg34
I2217299
sg35
g5
sg36
I475
sg37
g5
sg38
g8
(g12
S'\xf7o]\xe0bdDA'
p299
tp300
Rp301
ssS'ECHOLS JOHN B'
p302
(dp303
g3
g5
sg4
g5
sg6
I21530
sg7
I0
sg18
I00
sg19
g5
sg20
S'john.echols@enron.com'
p304
sg22
I2234774
sg23
g5
sg24
g5
sg25
g5
sg26
g5
sg27
I53775
sg28
g5
sg29
I200000
sg30
I1008941
sg31
I0
sg32
g5
sg33
g5
sg34
I407503
sg35
I182245
sg36
I2692324
sg37
I601438
sg38
g8
(g12
S'#K\x1d\x12Lv3A'
p305
tp306
Rp307
ssS'MENDELSOHN JOHN'
p308
(dp309
g3
g5
sg4
g5
sg6
I148
sg7
I0
sg18
I00
sg19
I-103750
sg20
g5
sg22
g5
sg23
g5
sg24
g5
sg25
g5
sg26
g5
sg27
g5
sg28
I103750
sg29
g5
sg30
g5
sg31
I0
sg32
g5
sg33
g5
sg34
g5
sg35
g5
sg36
I148
sg37
g5
sg38
g8
(g12
S'\x06\x94*\xa7\x8e!MA'
p310
tp311
Rp312
ssS'HICKERSON GARY J'
p313
(dp314
g3
I1320
sg4
g5
sg6
I98849
sg7
g8
(g12
S'\x9a\x99\x99\x99\x99\x99\xe5?'
p315
tp316
Rp317
sg18
I00
sg19
g5
sg20
S'gary.hickerson@enron.com'
p318
sg22
I69223
sg23
g5
sg24
I900
sg25
g5
sg26
I27
sg27
I1936
sg28
g5
sg29
I1700000
sg30
I441096
sg31
I0
sg32
I40
sg33
I1
sg34
I441096
sg35
I211788
sg36
I2081796
sg37
g5
sg38
g8
(g12
S'\xe1\x04\x9a\xce\xb6\xb1?A'
p319
tp320
Rp321
ssS'CLINE KENNETH W'
p322
(dp323
g3
g5
sg4
g5
sg6
g5
sg7
I0
sg18
I00
sg19
g5
sg20
g5
sg22
g5
sg23
I-472568
sg24
g5
sg25
g5
sg26
g5
sg27
g5
sg28
g5
sg29
g5
sg30
I189518
sg31
I0
sg32
g5
sg33
g5
sg34
I662086
sg35
g5
sg36
g5
sg37
g5
sg38
g8
(g12
S' \x1d\xfb\xd0\x06\x01LA'
p324
tp325
Rp326
ssS'LEWIS RICHARD'
p327
(dp328
g3
I952
sg4
g5
sg6
g5
sg7
g8
(g12
S'\xcd\xcc\xcc\xcc\xcc\xcc\x04@'
p329
tp330
Rp331
sg18
I00
sg19
g5
sg20
S'richard.lewis@enron.com'
p332
sg22
g5
sg23
g5
sg24
I739
sg25
g5
sg26
I26
sg27
g5
sg28
g5
sg29
g5
sg30
I850477
sg31
I0
sg32
I10
sg33
I0
sg34
g5
sg35
g5
sg36
g5
sg37
I850477
sg38
g8
(g12
S'\x95\x8a\x9e[\x7f\x9cHA'
p333
tp334
Rp335
ssS'HAYES ROBERT E'
p336
(dp337
g3
I504
sg4
I7961
sg6
g5
sg7
g8
(g12
S'\x00\x00\x00\x00\x00\x00\xe8?'
p338
tp339
Rp340
sg18
I00
sg19
g5
sg20
S'robert.hayes@enron.com'
p341
sg22
g5
sg23
g5
sg24
I50
sg25
g5
sg26
I12
sg27
g5
sg28
g5
sg29
g5
sg30
I151418
sg31
I0
sg32
I16
sg33
I0
sg34
I151418
sg35
g5
sg36
I7961
sg37
g5
sg38
g8
(g12
S'+\x8a\x1fi\x90\x7fLA'
p342
tp343
Rp344
ssS'MCCARTY DANNY J'
p345
(dp346
g3
I1433
sg4
g5
sg6
g5
sg7
g8
(g12
S'333333!@'
p347
tp348
Rp349
sg18
I00
sg19
g5
sg20
S'danny.mccarty@enron.com'
p350
sg22
g5
sg23
g5
sg24
I508
sg25
g5
sg26
I215
sg27
g5
sg28
g5
sg29
g5
sg30
I758931
sg31
I0
sg32
I25
sg33
I2
sg34
I94556
sg35
g5
sg36
g5
sg37
I664375
sg38
g8
(g12
S'\x1dz\xc9T\x95:IA'
p351
tp352
Rp353
ssS'KOPPER MICHAEL J'
p354
(dp355
g3
g5
sg4
g5
sg6
I118134
sg7
I0
sg18
I01
sg19
g5
sg20
S'michael.kopper@enron.com'
p356
sg22
I602671
sg23
g5
sg24
g5
sg25
g5
sg26
g5
sg27
I907502
sg28
g5
sg29
I800000
sg30
I985032
sg31
I0
sg32
g5
sg33
g5
sg34
I985032
sg35
I224305
sg36
I2652612
sg37
g5
sg38
g8
(g12
S'iu\xc3\x04\xee\xf34A'
p357
tp358
Rp359
ssS'LEFF DANIEL P'
p360
(dp361
g3
I2822
sg4
g5
sg6
g5
sg7
g8
(g12
S'\x8a\xf4@\xe5\xec\x16\xee?'
p362
tp363
Rp364
sg18
I00
sg19
g5
sg20
S'dan.leff@enron.com'
p365
sg22
I1387399
sg23
g5
sg24
I2672
sg25
g5
sg26
I63
sg27
I3083
sg28
g5
sg29
I1000000
sg30
I360528
sg31
I0
sg32
I67
sg33
I14
sg34
I360528
sg35
I273746
sg36
I2664228
sg37
g5
sg38
g8
(g12
S"\x9d\x8f,'\xe8F:A"
p366
tp367
Rp368
ssS'LAVORATO JOHN J'
p369
(dp370
g3
I7259
sg4
g5
sg6
I49537
sg7
g8
(g12
S'UUUUU\x95\x13@'
p371
tp372
Rp373
sg18
I00
sg19
g5
sg20
S'john.lavorato@enron.com'
p374
sg22
I2035380
sg23
g5
sg24
I3962
sg25
g5
sg26
I2585
sg27
I1552
sg28
g5
sg29
I8000000
sg30
I5167144
sg31
I0
sg32
I528
sg33
I411
sg34
I1008149
sg35
I339288
sg36
I10425757
sg37
I4158995
sg38
g8
(g12
S'\xc4\xf7\xea\xfe\xb8t[\xc1'
p375
tp376
Rp377
ssS'BERBERIAN DAVID'
p378
(dp379
g3
g5
sg4
g5
sg6
I11892
sg7
I0
sg18
I00
sg19
g5
sg20
S'david.berberian@enron.com'
p380
sg22
g5
sg23
g5
sg24
g5
sg25
g5
sg26
g5
sg27
g5
sg28
g5
sg29
g5
sg30
I2493616
sg31
I0
sg32
g5
sg33
g5
sg34
I869220
sg35
I216582
sg36
I228474
sg37
I1624396
sg38
g8
(g12
S'\xc0\xc6\xabl\x1e\xba?A'
p381
tp382
Rp383
ssS'DETMERING TIMOTHY J'
p384
(dp385
g3
g5
sg4
I875307
sg6
I52255
sg7
I0
sg18
I00
sg19
I-775241
sg20
S'timothy.detmering@enron.com'
p386
sg22
I415657
sg23
I-315068
sg24
g5
sg25
g5
sg26
g5
sg27
I1105
sg28
g5
sg29
I425000
sg30
I2027865
sg31
I0
sg32
g5
sg33
g5
sg34
I315068
sg35
I210500
sg36
I1204583
sg37
I2027865
sg38
g8
(g12
S'\x90\xa4\xf7\x93B\xec6A'
p387
tp388
Rp389
ssS'WAKEHAM JOHN'
p390
(dp391
g3
g5
sg4
g5
sg6
I103773
sg7
I0
sg18
I00
sg19
g5
sg20
g5
sg22
g5
sg23
g5
sg24
g5
sg25
g5
sg26
g5
sg27
g5
sg28
I109298
sg29
g5
sg30
g5
sg31
I0
sg32
g5
sg33
g5
sg34
g5
sg35
g5
sg36
I213071
sg37
g5
sg38
g8
(g12
S'\x86\xbe\x81PI\x07LA'
p392
tp393
Rp394
ssS'POWERS WILLIAM'
p395
(dp396
g3
I653
sg4
g5
sg6
g5
sg7
I0
sg18
I00
sg19
I-17500
sg20
S'ken.powers@enron.com'
p397
sg22
g5
sg23
g5
sg24
I12
sg25
g5
sg26
I26
sg27
g5
sg28
I17500
sg29
g5
sg30
g5
sg31
I0
sg32
I0
sg33
I0
sg34
g5
sg35
g5
sg36
g5
sg37
g5
sg38
g8
(g12
S'\x8clj\xb0\xe1"MA'
p398
tp399
Rp400
ssS'GOLD JOSEPH'
p401
(dp402
g3
g5
sg4
g5
sg6
g5
sg7
I0
sg18
I00
sg19
g5
sg20
S'joe.gold@enron.com'
p403
sg22
I304805
sg23
g5
sg24
g5
sg25
g5
sg26
g5
sg27
I819288
sg28
g5
sg29
I750000
sg30
I877611
sg31
I0
sg32
g5
sg33
g5
sg34
I441096
sg35
I272880
sg36
I2146973
sg37
I436515
sg38
g8
(g12
S'\xe0\x02\xeb\x16\x07\x1e:A'
p404
tp405
Rp406
ssS'BANNANTINE JAMES M'
p407
(dp408
g3
I566
sg4
g5
sg6
I56301
sg7
g8
(g12
S'\xb8|\xcb\xb7|\xcb\xe7?'
p409
tp410
Rp411
sg18
I00
sg19
I-5104
sg20
S'james.bannantine@enron.com'
p412
sg22
g5
sg23
I-560222
sg24
I465
sg25
g5
sg26
I29
sg27
I864523
sg28
g5
sg29
g5
sg30
I5243487
sg31
I0
sg32
I39
sg33
I0
sg34
I1757552
sg35
I477
sg36
I916197
sg37
I4046157
sg38
g8
(g12
S'\x02\xce\x94\xb9Q\x9c\x16\xc1'
p413
tp414
Rp415
ssS'DUNCAN JOHN H'
p416
(dp417
g3
g5
sg4
g5
sg6
g5
sg7
I0
sg18
I00
sg19
I-25000
sg20
g5
sg22
g5
sg23
g5
sg24
g5
sg25
g5
sg26
g5
sg27
g5
sg28
I102492
sg29
g5
sg30
I371750
sg31
I0
sg32
g5
sg33
g5
sg34
g5
sg35
g5
sg36
I77492
sg37
I371750
sg38
g8
(g12
S'!\xd0\x08\xb3,\xc1JA'
p418
tp419
Rp420
ssS'SHAPIRO RICHARD S'
p421
(dp422
g3
I15149
sg4
g5
sg6
I137767
sg7
g8
(g12
S'\xb4n0E>k0@'
p423
tp424
Rp425
sg18
I00
sg19
g5
sg20
S'richard.shapiro@enron.com'
p426
sg22
g5
sg23
g5
sg24
I4527
sg25
g5
sg26
I1215
sg27
I705
sg28
g5
sg29
I650000
sg30
I987001
sg31
I0
sg32
I74
sg33
I65
sg34
I379164
sg35
I269076
sg36
I1057548
sg37
I607837
sg38
g8
(g12
S'\x06\xfb\xf1\xbb\xac\x9fBA'
p427
tp428
Rp429
ssS'SHERRIFF JOHN R'
p430
(dp431
g3
I3187
sg4
g5
sg6
g5
sg7
g8
(g12
S'\x92$I\x92$I\n@'
p432
tp433
Rp434
sg18
I00
sg19
g5
sg20
S'john.sherriff@enron.com'
p435
sg22
I554422
sg23
g5
sg24
I2103
sg25
g5
sg26
I92
sg27
I1852186
sg28
g5
sg29
I1500000
sg30
I3128982
sg31
I0
sg32
I28
sg33
I23
sg34
I1293424
sg35
I428780
sg36
I4335388
sg37
I1835558
sg38
g8
(g12
S'2\x15\xcb\x87\x1f)4\xc1'
p436
tp437
Rp438
ssS'SHELBY REX'
p439
(dp440
g3
I225
sg4
g5
sg6
I22884
sg7
g8
(g12
S'\x00\x00\x00\x00\x00\x00\x08@'
p441
tp442
Rp443
sg18
I01
sg19
I-4167
sg20
S'rex.shelby@enron.com'
p444
sg22
g5
sg23
g5
sg24
I91
sg25
g5
sg26
I39
sg27
I1573324
sg28
g5
sg29
I200000
sg30
I2493616
sg31
g8
(g12
S'\x00\x00\x00\x00\x00 l@'
p445
tp446
Rp447
sg32
I13
sg33
I14
sg34
I869220
sg35
I211844
sg36
I2003885
sg37
I1624396
sg38
g8
(g12
S'lC\xf7\x05l\xa4&A'
p448
tp449
Rp450
ssS'LEMAISTRE CHARLES'
p451
(dp452
g3
g5
sg4
g5
sg6
g5
sg7
I0
sg18
I00
sg19
I-25000
sg20
g5
sg22
g5
sg23
g5
sg24
g5
sg25
g5
sg26
g5
sg27
g5
sg28
I112492
sg29
g5
sg30
I412878
sg31
I0
sg32
g5
sg33
g5
sg34
g5
sg35
g5
sg36
I87492
sg37
I412878
sg38
g8
(g12
S'&7\\\xf4\xd4{JA'
p453
tp454
Rp455
ssS'DEFFNER JOSEPH M'
p456
(dp457
g3
I714
sg4
g5
sg6
I41626
sg7
g8
(g12
S'I\xe5\xc3\xb8_\x97\xe4?'
p458
tp459
Rp460
sg18
I00
sg19
g5
sg20
S'joseph.deffner@enron.com'
p461
sg22
I335349
sg23
g5
sg24
I552
sg25
g5
sg26
I74
sg27
I25553
sg28
g5
sg29
I600000
sg30
I159211
sg31
I0
sg32
I115
sg33
I4
sg34
I141833
sg35
I206121
sg36
I1208649
sg37
I17378
sg38
g8
(g12
S',\xc4dC\x14\xdbEA'
p462
tp463
Rp464
ssS'KISHKILL JOSEPH G'
p465
(dp466
g3
g5
sg4
g5
sg6
I116335
sg7
I0
sg18
I00
sg19
I-51042
sg20
S'joe.kishkill@enron.com'
p467
sg22
g5
sg23
g5
sg24
g5
sg25
g5
sg26
g5
sg27
I465357
sg28
g5
sg29
g5
sg30
I1034346
sg31
I0
sg32
g5
sg33
g5
sg34
I1034346
sg35
I174246
sg36
I704896
sg37
g5
sg38
g8
(g12
S'\x94\xbc\x15t\xa9\x1dEA'
p468
tp469
Rp470
ssS'WHALLEY LAWRENCE G'
p471
(dp472
g3
I6019
sg4
g5
sg6
I57838
sg7
g8
(g12
S'\xea\xa7\x9f~\xfa\xe9\x07@'
p473
tp474
Rp475
sg18
I00
sg19
g5
sg20
S'greg.whalley@enron.com'
p476
sg22
I808346
sg23
g5
sg24
I3920
sg25
g5
sg26
I556
sg27
I301026
sg28
g5
sg29
I3000000
sg30
I6079137
sg31
I0
sg32
I186
sg33
I24
sg34
I2796177
sg35
I510364
sg36
I4677574
sg37
I3282960
sg38
g8
(g12
S'd\t,\xff\xadHI\xc1'
p477
tp478
Rp479
ssS'MCCONNELL MICHAEL S'
p480
(dp481
g3
I3329
sg4
g5
sg6
I81364
sg7
g8
(g12
S'\xf5\xa67\xbd\xe9\xcd=@'
p482
tp483
Rp484
sg18
I00
sg19
g5
sg20
S'mike.mcconnell@enron.com'
p485
sg22
I554422
sg23
g5
sg24
I2189
sg25
g5
sg26
I2742
sg27
I540
sg28
g5
sg29
I1100000
sg30
I3101279
sg31
I0
sg32
I92
sg33
I194
sg34
I1478269
sg35
I365038
sg36
I2101364
sg37
I1623010
sg38
g8
(g12
S'\xf0o\xd4\xa6\x1c8\x19A'
p486
tp487
Rp488
ssS'PIRO JIM'
p489
(dp490
g3
I58
sg4
g5
sg6
g5
sg7
I0
sg18
I00
sg19
g5
sg20
S'jim.piro@enron.com'
p491
sg22
g5
sg23
g5
sg24
I3
sg25
g5
sg26
I16
sg27
g5
sg28
g5
sg29
g5
sg30
I47304
sg31
I0
sg32
I0
sg33
I1
sg34
I47304
sg35
g5
sg36
g5
sg37
g5
sg38
g8
(g12
S'4.\x81\xda\\\xf3LA'
p492
tp493
Rp494
ssS'DELAINEY DAVID W'
p495
(dp496
g3
I3093
sg4
g5
sg6
I86174
sg7
g8
(g12
S'\x00\x00\x00\x00\x00@G@'
p497
tp498
Rp499
sg18
I01
sg19
g5
sg20
S'david.delainey@enron.com'
p500
sg22
I1294981
sg23
g5
sg24
I2097
sg25
g5
sg26
I3069
sg27
I1661
sg28
g5
sg29
I3000000
sg30
I3614261
sg31
g8
(g12
S'\x00\x00\x00\x00\x00*\xa8@'
p501
tp502
Rp503
sg32
I66
sg33
I609
sg34
I1323148
sg35
I365163
sg36
I4747979
sg37
I2291113
sg38
g8
(g12
S'\x8e\xbf60M\xfa<\xc1'
p504
tp505
Rp506
ssS'SULLIVAN-SHAKLOVITZ COLLEEN'
p507
(dp508
g3
g5
sg4
I181993
sg6
g5
sg7
I0
sg18
I00
sg19
g5
sg20
g5
sg22
I554422
sg23
g5
sg24
g5
sg25
g5
sg26
g5
sg27
I162
sg28
g5
sg29
I100000
sg30
I1362375
sg31
I0
sg32
g5
sg33
g5
sg34
g5
sg35
I162779
sg36
I999356
sg37
I1362375
sg38
g8
(g12
S'\xaeE\x01\xee\xed\x82@A'
p509
tp510
Rp511
ssS'WROBEL BRUCE'
p512
(dp513
g3
g5
sg4
g5
sg6
g5
sg7
I0
sg18
I00
sg19
g5
sg20
g5
sg22
g5
sg23
g5
sg24
g5
sg25
g5
sg26
g5
sg27
g5
sg28
g5
sg29
g5
sg30
I139130
sg31
I0
sg32
g5
sg33
g5
sg34
g5
sg35
g5
sg36
g5
sg37
I139130
sg38
g8
(g12
S'\x0e=\x8bz\x92eLA'
p514
tp515
Rp516
ssS'LINDHOLM TOD A'
p517
(dp518
g3
g5
sg4
I204075
sg6
I57727
sg7
I0
sg18
I00
sg19
g5
sg20
S'tod.lindholm@enron.com'
p519
sg22
I175000
sg23
g5
sg24
g5
sg25
g5
sg26
g5
sg27
I2630
sg28
g5
sg29
I200000
sg30
I3064208
sg31
I0
sg32
g5
sg33
g5
sg34
I514847
sg35
I236457
sg36
I875889
sg37
I2549361
sg38
g8
(g12
S'\x7f)\xba\xaf\x80\xad1A'
p520
tp521
Rp522
ssS'MEYER JEROME J'
p523
(dp524
g3
g5
sg4
g5
sg6
I2151
sg7
I0
sg18
I00
sg19
I-38346
sg20
g5
sg22
g5
sg23
g5
sg24
g5
sg25
g5
sg26
g5
sg27
g5
sg28
I38346
sg29
g5
sg30
g5
sg31
I0
sg32
g5
sg33
g5
sg34
g5
sg35
g5
sg36
I2151
sg37
g5
sg38
g8
(g12
S'\xfaA|\n\xbe\x1fMA'
p525
tp526
Rp527
ssS'LAY KENNETH L'
p528
(dp529
g3
I4273
sg4
I202911
sg6
I99832
sg7
g8
(g12
S'\xbb\x12\xb5+Q\xbb\xd2?'
p530
tp531
Rp532
sg18
I01
sg19
I-300000
sg20
S'kenneth.lay@enron.com'
p533
sg22
I3600000
sg23
g5
sg24
I2411
sg25
I81525000
sg26
I36
sg27
I10359729
sg28
g5
sg29
I7000000
sg30
I49110078
sg31
g8
(g12
S'\x00\x00\x00\x00\x00\xb1\xb0@'
p534
tp535
Rp536
sg32
I123
sg33
I16
sg34
I14761694
sg35
I1072321
sg36
I103559793
sg37
I34348384
sg38
g8
(g12
S'\xd7\xa3\x85H4\xde\xa0\xc1'
p537
tp538
Rp539
ssS'BUTTS ROBERT H'
p540
(dp541
g3
g5
sg4
g5
sg6
I9410
sg7
I0
sg18
I00
sg19
I-75000
sg20
S'bob.butts@enron.com'
p542
sg22
I175000
sg23
g5
sg24
g5
sg25
g5
sg26
g5
sg27
I150656
sg28
g5
sg29
I750000
sg30
I417619
sg31
I0
sg32
g5
sg33
g5
sg34
I417619
sg35
I261516
sg36
I1271582
sg37
g5
sg38
g8
(g12
S'\xee\x83\xc0\x18\xafmDA'
p543
tp544
Rp545
ssS'OLSON CINDY K'
p546
(dp547
g3
I1184
sg4
I77716
sg6
I63791
sg7
g8
(g12
S'\xcd\xcc\xcc\xcc\xcc\xcc\x04@'
p548
tp549
Rp550
sg18
I00
sg19
g5
sg20
S'cindy.olson@enron.com'
p551
sg22
I100000
sg23
g5
sg24
I856
sg25
g5
sg26
I52
sg27
I972
sg28
g5
sg29
I750000
sg30
I2606763
sg31
I0
sg32
I20
sg33
I15
sg34
I969729
sg35
I329078
sg36
I1321557
sg37
I1637034
sg38
g8
(g12
S'\xd8\x8e\xbbDE\xc02A'
p552
tp553
Rp554
ssS'MCDONALD REBECCA'
p555
(dp556
g3
I894
sg4
g5
sg6
g5
sg7
g8
(g12
S'\t\xed%\xb4\x97\xd0\xce?'
p557
tp558
Rp559
sg18
I00
sg19
g5
sg20
S'rebecca.mcdonald@enron.com'
p560
sg22
g5
sg23
g5
sg24
I720
sg25
g5
sg26
I13
sg27
g5
sg28
g5
sg29
g5
sg30
I1691366
sg31
I0
sg32
I54
sg33
I1
sg34
I934065
sg35
g5
sg36
g5
sg37
I757301
sg38
g8
(g12
S'\xc0X\xc7\xaf\x9blEA'
p561
tp562
Rp563
ssS'CUMBERLAND MICHAEL S'
p564
(dp565
g3
g5
sg4
g5
sg6
I22344
sg7
I0
sg18
I00
sg19
g5
sg20
g5
sg22
I275000
sg23
g5
sg24
g5
sg25
g5
sg26
g5
sg27
I713
sg28
g5
sg29
I325000
sg30
I207940
sg31
I0
sg32
g5
sg33
g5
sg34
I207940
sg35
I184899
sg36
I807956
sg37
g5
sg38
g8
(g12
S'3\xda\x9a\xd0{\xe9GA'
p566
tp567
Rp568
ssS'GAHN ROBERT S'
p569
(dp570
g3
g5
sg4
I73122
sg6
I50080
sg7
I0
sg18
I00
sg19
I-1042
sg20
g5
sg22
g5
sg23
g5
sg24
g5
sg25
g5
sg26
g5
sg27
I76547
sg28
g5
sg29
I509870
sg30
I318607
sg31
I0
sg32
g5
sg33
g5
sg34
I235370
sg35
I192008
sg36
I900585
sg37
I83237
sg38
g8
(g12
S'\x8f\x91\xa2\x14\x86\xd0FA'
p571
tp572
Rp573
ssS'MCCLELLAN GEORGE'
p574
(dp575
g3
I1744
sg4
g5
sg6
I228763
sg7
g8
(g12
S"vb'vb'\xee?"
p576
tp577
Rp578
sg18
I00
sg19
I-125000
sg20
S'george.mcclellan@enron.com'
p579
sg22
g5
sg23
g5
sg24
I1469
sg25
g5
sg26
I49
sg27
I51587
sg28
g5
sg29
I900000
sg30
I947861
sg31
I0
sg32
I52
sg33
I0
sg34
I441096
sg35
I263413
sg36
I1318763
sg37
I506765
sg38
g8
(g12
S'\xd5\xe7\xecv\xebkAA'
p580
tp581
Rp582
ssS'HERMANN ROBERT J'
p583
(dp584
g3
g5
sg4
g5
sg6
I48357
sg7
I0
sg18
I00
sg19
I-280000
sg20
S'robert.hermann@enron.com'
p585
sg22
I150000
sg23
g5
sg24
g5
sg25
g5
sg26
g5
sg27
I416441
sg28
g5
sg29
I700000
sg30
I668132
sg31
I0
sg32
g5
sg33
g5
sg34
I480632
sg35
I262663
sg36
I1297461
sg37
I187500
sg38
g8
(g12
S'Iq\x9d\xa4\x9e\xe9BA'
p586
tp587
Rp588
ssS'SCRIMSHAW MATTHEW'
p589
(dp590
g3
g5
sg4
g5
sg6
g5
sg7
I0
sg18
I00
sg19
g5
sg20
S'matthew.scrimshaw@enron.com'
p591
sg22
g5
sg23
g5
sg24
g5
sg25
g5
sg26
g5
sg27
g5
sg28
g5
sg29
g5
sg30
I759557
sg31
I0
sg32
g5
sg33
g5
sg34
g5
sg35
g5
sg36
g5
sg37
I759557
sg38
g8
(g12
S'\xd71.\xd1[\x18IA'
p592
tp593
Rp594
ssS'GATHMANN WILLIAM D'
p595
(dp596
g3
g5
sg4
g5
sg6
g5
sg7
I0
sg18
I00
sg19
g5
sg20
g5
sg22
g5
sg23
I-72419
sg24
g5
sg25
g5
sg26
g5
sg27
g5
sg28
g5
sg29
g5
sg30
I1945360
sg31
I0
sg32
g5
sg33
g5
sg34
I264013
sg35
g5
sg36
g5
sg37
I1753766
sg38
g8
(g12
S'\xbf58\xadh\xfdBA'
p597
tp598
Rp599
ssS'HAEDICKE MARK E'
p600
(dp601
g3
I4009
sg4
I2157527
sg6
I76169
sg7
g8
(g12
S'\x11\x11\x11\x11\x11\x91%@'
p602
tp603
Rp604
sg18
I00
sg19
I-934484
sg20
S'mark.haedicke@enron.com'
p605
sg22
I983346
sg23
I-329825
sg24
I1847
sg25
g5
sg26
I1941
sg27
I52382
sg28
g5
sg29
I1150000
sg30
I803094
sg31
I0
sg32
I180
sg33
I61
sg34
I524169
sg35
I374125
sg36
I3859065
sg37
I608750
sg38
g8
(g12
S'\x7f\xe2rrv-\x1fA'
p606
tp607
Rp608
ssS'BOWEN JR RAYMOND M'
p609
(dp610
g3
I1858
sg4
g5
sg6
I65907
sg7
g8
(g12
S'\xf9\x8a\xaf\xf8\x8a\xaf\xc8?'
p611
tp612
Rp613
sg18
I01
sg19
I-833
sg20
S'raymond.bowen@enron.com'
p614
sg22
I974293
sg23
g5
sg24
I1593
sg25
g5
sg26
I27
sg27
I1621
sg28
g5
sg29
I1350000
sg30
I252055
sg31
g8
(g12
S'\x00\x00\x00\x00\x00\x08\x9d@'
p615
tp616
Rp617
sg32
I140
sg33
I15
sg34
I252055
sg35
I278601
sg36
I2669589
sg37
g5
sg38
g8
(g12
S'57\x9a\xffA\xf7:A'
p618
tp619
Rp620
ssS'GILLIS JOHN'
p621
(dp622
g3
g5
sg4
g5
sg6
g5
sg7
I0
sg18
I00
sg19
g5
sg20
g5
sg22
g5
sg23
g5
sg24
g5
sg25
g5
sg26
g5
sg27
g5
sg28
g5
sg29
g5
sg30
I85641
sg31
I0
sg32
g5
sg33
g5
sg34
I75838
sg35
g5
sg36
g5
sg37
I9803
sg38
g8
(g12
S'\xc7w\x17\xd84\xc9LA'
p623
tp624
Rp625
ssS'FITZGERALD JAY L'
p626
(dp627
g3
I936
sg4
g5
sg6
I23870
sg7
g8
(g12
S'\x00\x00\x00\x00\x00\x000@'
p628
tp629
Rp630
sg18
I00
sg19
g5
sg20
S'jay.fitzgerald@enron.com'
p631
sg22
I556416
sg23
g5
sg24
I723
sg25
g5
sg26
I16
sg27
I285414
sg28
g5
sg29
I350000
sg30
I1621236
sg31
I0
sg32
I1
sg33
I8
sg34
I956775
sg35
I199157
sg36
I1414857
sg37
I664461
sg38
g8
(g12
S'\xc0\xe8\x94\xae[\x12<A'
p632
tp633
Rp634
ssS'MORAN MICHAEL P'
p635
(dp636
g3
I672
sg4
g5
sg6
g5
sg7
I0
sg18
I00
sg19
g5
sg20
S'michael.moran@enron.com'
p637
sg22
g5
sg23
g5
sg24
I127
sg25
g5
sg26
I19
sg27
g5
sg28
g5
sg29
g5
sg30
I221141
sg31
I0
sg32
I0
sg33
I0
sg34
I161602
sg35
g5
sg36
g5
sg37
I59539
sg38
g8
(g12
S'*`\xa7\xe3\xe1.LA'
p638
tp639
Rp640
ssS'REDMOND BRIAN L'
p641
(dp642
g3
I1671
sg4
g5
sg6
I14689
sg7
g8
(g12
S'UUUUUU\xf1?'
p643
tp644
Rp645
sg18
I00
sg19
g5
sg20
S'brian.redmond@enron.com'
p646
sg22
g5
sg23
g5
sg24
I1063
sg25
g5
sg26
I221
sg27
g5
sg28
g5
sg29
g5
sg30
I7890324
sg31
I0
sg32
I204
sg33
I49
sg34
I381285
sg35
I96840
sg36
I111529
sg37
I7509039
sg38
g8
(g12
S'6\xdb\xb2(\xf5\xd29\xc1'
p647
tp648
Rp649
ssS'BAZELIDES PHILIP J'
p650
(dp651
g3
g5
sg4
I684694
sg6
g5
sg7
I0
sg18
I00
sg19
g5
sg20
g5
sg22
I93750
sg23
g5
sg24
g5
sg25
g5
sg26
g5
sg27
I874
sg28
g5
sg29
g5
sg30
I1599641
sg31
I0
sg32
g5
sg33
g5
sg34
g5
sg35
I80818
sg36
I860136
sg37
I1599641
sg38
g8
(g12
S'\x04\xb7\x8a\xa6\xd0\x16@A'
p652
tp653
Rp654
ssS'BELDEN TIMOTHY N'
p655
(dp656
g3
I7991
sg4
I2144013
sg6
I17355
sg7
g8
(g12
S'\xb8\x8f\xe0>\x82\xfb\x00@'
p657
tp658
Rp659
sg18
I01
sg19
I-2334434
sg20
S'tim.belden@enron.com'
p660
sg22
g5
sg23
g5
sg24
I5521
sg25
g5
sg26
I484
sg27
I210698
sg28
g5
sg29
I5249999
sg30
I1110705
sg31
g8
(g12
S'\x00\x00\x00\x00\x007\xbf@'
p661
tp662
Rp663
sg32
I228
sg33
I108
sg34
I157569
sg35
I213999
sg36
I5501630
sg37
I953136
sg38
g8
(g12
S'DxB3\xa7\xb7.\xc1'
p664
tp665
Rp666
ssS'DURAN WILLIAM D'
p667
(dp668
g3
I904
sg4
g5
sg6
I25785
sg7
g8
(g12
S'"5\xc1x+\xfb\xbc?'
p669
tp670
Rp671
sg18
I00
sg19
g5
sg20
S'w.duran@enron.com'
p672
sg22
I1105218
sg23
g5
sg24
I599
sg25
g5
sg26
I12
sg27
I1568
sg28
g5
sg29
I750000
sg30
I1640910
sg31
I0
sg32
I106
sg33
I3
sg34
I189041
sg35
I210692
sg36
I2093263
sg37
I1451869
sg38
g8
(g12
S'\x89Y\xe7\x92\xeer2A'
p673
tp674
Rp675
ssS'THORN TERENCE H'
p676
(dp677
g3
I266
sg4
I16586
sg6
I46145
sg7
I0
sg18
I00
sg19
g5
sg20
S'terence.thorn@enron.com'
p678
sg22
I200000
sg23
g5
sg24
I73
sg25
g5
sg26
I41
sg27
I426629
sg28
g5
sg29
g5
sg30
I4817796
sg31
I0
sg32
I0
sg33
I0
sg34
I365320
sg35
I222093
sg36
I911453
sg37
I4452476
sg38
g8
(g12
S'\xdaa\xa9\x00\xe4\x92\x00\xc1'
p679
tp680
Rp681
ssS'FASTOW ANDREW S'
p682
(dp683
g3
g5
sg4
g5
sg6
I55921
sg7
I0
sg18
I01
sg19
I-1386055
sg20
S'andrew.fastow@enron.com'
p684
sg22
I1736055
sg23
g5
sg24
g5
sg25
g5
sg26
g5
sg27
I277464
sg28
g5
sg29
I1300000
sg30
I1794412
sg31
I0
sg32
g5
sg33
g5
sg34
I1794412
sg35
I440698
sg36
I2424083
sg37
g5
sg38
g8
(g12
S'p\x1e\xe4o\x05\x9a0A'
p685
tp686
Rp687
ssS'FOY JOE'
p688
(dp689
g3
I57
sg4
I181755
sg6
g5
sg7
I0
sg18
I00
sg19
g5
sg20
S'tracy.foy@enron.com'
p690
sg22
g5
sg23
g5
sg24
I2
sg25
g5
sg26
I13
sg27
g5
sg28
g5
sg29
g5
sg30
I343434
sg31
I0
sg32
I0
sg33
I0
sg34
g5
sg35
g5
sg36
I181755
sg37
I343434
sg38
g8
(g12
S':,\x99\xda\xc4ZJA'
p691
tp692
Rp693
ssS'CALGER CHRISTOPHER F'
p694
(dp695
g3
I2598
sg4
g5
sg6
I35818
sg7
g8
(g12
S"t*) \xe1'\xe7?"
p696
tp697
Rp698
sg18
I01
sg19
I-262500
sg20
S'christopher.calger@enron.com'
p699
sg22
I375304
sg23
g5
sg24
I2188
sg25
g5
sg26
I144
sg27
I486
sg28
g5
sg29
I1250000
sg30
I126027
sg31
g8
(g12
S'\x00\x00\x00\x00\x00L\xa4@'
p700
tp701
Rp702
sg32
I199
sg33
I25
sg34
I126027
sg35
I240189
sg36
I1639297
sg37
g5
sg38
g8
(g12
S'C\x8b/\x8d\xdf~CA'
p703
tp704
Rp705
ssS'RICE KENNETH D'
p706
(dp707
g3
I905
sg4
g5
sg6
I46950
sg7
g8
(g12
S'\xdb\xb6m\xdb\xb6m\xdb?'
p708
tp709
Rp710
sg18
I01
sg19
I-3504386
sg20
S'ken.rice@enron.com'
p711
sg22
I1617011
sg23
g5
sg24
I864
sg25
g5
sg26
I18
sg27
I174839
sg28
g5
sg29
I1750000
sg30
I22542539
sg31
g8
(g12
S'\x00\x00\x00\x00\x00H\x8c@'
p712
tp713
Rp714
sg32
I42
sg33
I4
sg34
I2748364
sg35
I420636
sg36
I505050
sg37
I19794175
sg38
g8
(g12
S'\x18\xb4H\x0ev\xc1f\xc1'
p715
tp716
Rp717
ssS'KAMINSKI WINCENTY J'
p718
(dp719
g3
I4607
sg4
g5
sg6
I83585
sg7
g8
(g12
S'\xe7cp>\x06\xe7u@'
p720
tp721
Rp722
sg18
I00
sg19
g5
sg20
S'vince.kaminski@enron.com'
p723
sg22
I323466
sg23
g5
sg24
I583
sg25
g5
sg26
I14368
sg27
I4669
sg28
g5
sg29
I400000
sg30
I976037
sg31
I0
sg32
I41
sg33
I171
sg34
I126027
sg35
I275101
sg36
I1086821
sg37
I850010
sg38
g8
(g12
S'1\xbaU\x7fO6BA'
p724
tp725
Rp726
ssS'COX DAVID'
p727
(dp728
g3
I102
sg4
g5
sg6
I27861
sg7
I0
sg18
I00
sg19
I-41250
sg20
S'chip.cox@enron.com'
p729
sg22
g5
sg23
g5
sg24
I71
sg25
g5
sg26
I33
sg27
I494
sg28
g5
sg29
I800000
sg30
I495633
sg31
I0
sg32
I0
sg33
I4
sg34
I378082
sg35
I314288
sg36
I1101393
sg37
I117551
sg38
g8
(g12
S'\xc0U\xc1\xca\x89\xf1DA'
p730
tp731
Rp732
ssS'OVERDYKE JR JERE C'
p733
(dp734
g3
g5
sg4
g5
sg6
I18834
sg7
I0
sg18
I00
sg19
g5
sg20
S'jere.overdyke@enron.com'
p735
sg22
I135836
sg23
g5
sg24
g5
sg25
g5
sg26
g5
sg27
I176
sg28
g5
sg29
g5
sg30
I7307594
sg31
I0
sg32
g5
sg33
g5
sg34
I2041016
sg35
I94941
sg36
I249787
sg37
I5266578
sg38
g8
(g12
S'\xacr1\x85\x90\x8a0\xc1'
p736
tp737
Rp738
ssS'PEREIRA PAULO V. FERRAZ'
p739
(dp740
g3
g5
sg4
g5
sg6
I27942
sg7
I0
sg18
I00
sg19
I-101250
sg20
g5
sg22
g5
sg23
g5
sg24
g5
sg25
g5
sg26
g5
sg27
g5
sg28
I101250
sg29
g5
sg30
g5
sg31
I0
sg32
g5
sg33
g5
sg34
g5
sg35
g5
sg36
I27942
sg37
g5
sg38
g8
(g12
S'MP&\xd8\x8b\xfcLA'
p741
tp742
Rp743
ssS'STABLER FRANK'
p744
(dp745
g3
g5
sg4
g5
sg6
I16514
sg7
I0
sg18
I00
sg19
g5
sg20
S'frank.stabler@enron.com'
p746
sg22
g5
sg23
g5
sg24
g5
sg25
g5
sg26
g5
sg27
I356071
sg28
g5
sg29
I500000
sg30
I511734
sg31
I0
sg32
g5
sg33
g5
sg34
I511734
sg35
I239502
sg36
I1112087
sg37
g5
sg38
g8
(g12
S'\x86\xfc!\x8aN\xeaDA'
p747
tp748
Rp749
ssS'SKILLING JEFFREY K'
p750
(dp751
g3
I3627
sg4
g5
sg6
I29336
sg7
g8
(g12
S'\xa3\x8b.\xba\xe8\xa2\xf3?'
p752
tp753
Rp754
sg18
I01
sg19
g5
sg20
S'jeff.skilling@enron.com'
p755
sg22
I1920000
sg23
g5
sg24
I2042
sg25
g5
sg26
I108
sg27
I22122
sg28
g5
sg29
I5600000
sg30
I26093672
sg31
g8
(g12
S'\x00\x00\x00\x00\x00V\xac@'
p756
tp757
Rp758
sg32
I88
sg33
I30
sg34
I6843672
sg35
I1111258
sg36
I8682716
sg37
I19250000
sg38
g8
(g12
S'\x9d\xfd\xc9\x01\x03\x87r\xc1'
p759
tp760
Rp761
ssS'BLAKE JR. NORMAN P'
p762
(dp763
g3
g5
sg4
g5
sg6
I1279
sg7
I0
sg18
I00
sg19
I-113784
sg20
g5
sg22
g5
sg23
g5
sg24
g5
sg25
g5
sg26
g5
sg27
g5
sg28
I113784
sg29
g5
sg30
g5
sg31
I0
sg32
g5
sg33
g5
sg34
g5
sg35
g5
sg36
I1279
sg37
g5
sg38
g8
(g12
S'\xf0k\xa61\xeb\x1fMA'
p764
tp765
Rp766
ssS'SHERRICK JEFFREY B'
p767
(dp768
g3
I613
sg4
g5
sg6
g5
sg7
g8
(g12
S'5H\x834H\x83\xe4?'
p769
tp770
Rp771
sg18
I00
sg19
g5
sg20
S'jeffrey.sherrick@enron.com'
p772
sg22
g5
sg23
g5
sg24
I583
sg25
g5
sg26
I25
sg27
g5
sg28
g5
sg29
g5
sg30
I1832468
sg31
I0
sg32
I39
sg33
I18
sg34
I405999
sg35
g5
sg36
g5
sg37
I1426469
sg38
g8
(g12
S'\x00M\xec\x16\x03\xf2CA'
p773
tp774
Rp775
ssS'PRENTICE JAMES'
p776
(dp777
g3
g5
sg4
I564348
sg6
g5
sg7
I0
sg18
I00
sg19
g5
sg20
S'james.prentice@enron.com'
p778
sg22
g5
sg23
g5
sg24
g5
sg25
g5
sg26
g5
sg27
g5
sg28
g5
sg29
g5
sg30
I1095040
sg31
I0
sg32
g5
sg33
g5
sg34
I208809
sg35
g5
sg36
I564348
sg37
I886231
sg38
g8
(g12
S'\\B\x1a\x8a\xeb\xa1DA'
p779
tp780
Rp781
ssS'GRAY RODNEY'
p782
(dp783
g3
g5
sg4
I93585
sg6
g5
sg7
I0
sg18
I00
sg19
g5
sg20
g5
sg22
I365625
sg23
g5
sg24
g5
sg25
g5
sg26
g5
sg27
I680833
sg28
g5
sg29
g5
sg30
g5
sg31
I0
sg32
g5
sg33
g5
sg34
g5
sg35
I6615
sg36
I1146658
sg37
g5
sg38
g8
(g12
S'\xc6\xaf\x7f\xc8\xe7\xb4FA'
p784
tp785
Rp786
ssS'PICKERING MARK R'
p787
(dp788
g3
I898
sg4
g5
sg6
I31653
sg7
g8
(g12
S'I\x92$I\x92$#@'
p789
tp790
Rp791
sg18
I00
sg19
g5
sg20
S'mark.pickering@enron.com'
p792
sg22
g5
sg23
g5
sg24
I728
sg25
I400000
sg26
I67
sg27
g5
sg28
g5
sg29
I300000
sg30
I28798
sg31
I0
sg32
I7
sg33
I0
sg34
g5
sg35
I655037
sg36
I1386690
sg37
I28798
sg38
g8
(g12
S"\xdd\x9fM}'\nDA"
p793
tp794
Rp795
ssS'NOLES JAMES L'
p796
(dp797
g3
g5
sg4
I774401
sg6
g5
sg7
I0
sg18
I00
sg19
g5
sg20
g5
sg22
g5
sg23
I-94556
sg24
g5
sg25
g5
sg26
g5
sg27
g5
sg28
g5
sg29
g5
sg30
I368705
sg31
I0
sg32
g5
sg33
g5
sg34
I463261
sg35
g5
sg36
I774401
sg37
g5
sg38
g8
(g12
S'\x8f\xa8\xd6\x95\x89\x89GA'
p798
tp799
Rp800
ssS'KEAN STEVEN J'
p801
(dp802
g3
I12754
sg4
g5
sg6
I41953
sg7
g8
(g12
S';\xa8\x83:\xa8#H@'
p803
tp804
Rp805
sg18
I00
sg19
g5
sg20
S'steven.kean@enron.com'
p806
sg22
I300000
sg23
g5
sg24
I3639
sg25
g5
sg26
I6759
sg27
I1231
sg28
g5
sg29
I1000000
sg30
I6153642
sg31
I0
sg32
I140
sg33
I387
sg34
I4131594
sg35
I404338
sg36
I1747522
sg37
I2022048
sg38
g8
(g12
S'\xf3\x0f<\x13\x9e\x00.\xc1'
p807
tp808
Rp809
ssS'FOWLER PEGGY'
p810
(dp811
g3
I517
sg4
g5
sg6
g5
sg7
I0
sg18
I00
sg19
g5
sg20
S'kulvinder.fowler@enron.com'
p812
sg22
g5
sg23
g5
sg24
I10
sg25
g5
sg26
I36
sg27
g5
sg28
g5
sg29
g5
sg30
I1884748
sg31
I0
sg32
I0
sg33
I0
sg34
I560170
sg35
g5
sg36
g5
sg37
I1324578
sg38
g8
(g12
S'n\x14\x91\xd33\xe1CA'
p813
tp814
Rp815
ssS'WASAFF GEORGE'
p816
(dp817
g3
I400
sg4
I831299
sg6
g5
sg7
g8
(g12
S'\xd1E\x17]t\xd1\xf5?'
p818
tp819
Rp820
sg18
I00
sg19
I-583325
sg20
S'george.wasaff@enron.com'
p821
sg22
I200000
sg23
g5
sg24
I337
sg25
g5
sg26
I30
sg27
I1425
sg28
g5
sg29
I325000
sg30
I2056427
sg31
I0
sg32
I22
sg33
I7
sg34
I388167
sg35
I259996
sg36
I1034395
sg37
I1668260
sg38
g8
(g12
S'\xb1m\x08<E*:A'
p822
tp823
Rp824
ssS'WHITE JR THOMAS E'
p825
(dp826
g3
g5
sg4
g5
sg6
I81353
sg7
I0
sg18
I00
sg19
g5
sg20
S'thomas.white@enron.com'
p827
sg22
g5
sg23
g5
sg24
g5
sg25
g5
sg26
g5
sg27
I1085463
sg28
g5
sg29
I450000
sg30
I15144123
sg31
I0
sg32
g5
sg33
g5
sg34
I13847074
sg35
I317543
sg36
I1934359
sg37
I1297049
sg38
g8
(g12
S'E\x8bI\xb3\xab\x9eU\xc1'
p828
tp829
Rp830
ssS'CHRISTODOULOU DIOMEDES'
p831
(dp832
g3
g5
sg4
g5
sg6
g5
sg7
I0
sg18
I00
sg19
g5
sg20
S'diomedes.christodoulou@enron.com'
p833
sg22
g5
sg23
g5
sg24
g5
sg25
g5
sg26
g5
sg27
g5
sg28
g5
sg29
g5
sg30
I6077885
sg31
I0
sg32
g5
sg33
g5
sg34
I950730
sg35
g5
sg36
g5
sg37
I5127155
sg38
g8
(g12
S'\xa0\xf4\x16@\xe6T\x0e\xc1'
p834
tp835
Rp836
ssS'ALLEN PHILLIP K'
p837
(dp838
g3
I2902
sg4
I2869717
sg6
I13868
sg7
g8
(g12
S'\xa3\xbe\xb3Q\xdfYG@'
p839
tp840
Rp841
sg18
I00
sg19
I-3081055
sg20
S'phillip.allen@enron.com'
p842
sg22
I304805
sg23
I-126027
sg24
I1407
sg25
g5
sg26
I2195
sg27
I152
sg28
g5
sg29
I4175000
sg30
I1729541
sg31
I0
sg32
I47
sg33
I65
sg34
I126027
sg35
I201955
sg36
I4484442
sg37
I1729541
sg38
g8
(g12
S'\xc7\x9a\xe4\xb1\x89W&\xc1'
p843
tp844
Rp845
ssS'SHARP VICTORIA T'
p846
(dp847
g3
I3136
sg4
I187469
sg6
I116337
sg7
g8
(g12
S'\xab\xaa\xaa\xaa\xaa\xaa\x16@'
p848
tp849
Rp850
sg18
I00
sg19
g5
sg20
S'vicki.sharp@enron.com'
p851
sg22
I422158
sg23
g5
sg24
I2477
sg25
g5
sg26
I136
sg27
I2401
sg28
g5
sg29
I600000
sg30
I494136
sg31
I0
sg32
I24
sg33
I6
sg34
I213063
sg35
I248146
sg36
I1576511
sg37
I281073
sg38
g8
(g12
S'\xe4e\xedmu=BA'
p852
tp853
Rp854
ssS'JAEDICKE ROBERT'
p855
(dp856
g3
g5
sg4
g5
sg6
g5
sg7
I0
sg18
I00
sg19
I-25000
sg20
g5
sg22
g5
sg23
I-44093
sg24
g5
sg25
g5
sg26
g5
sg27
g5
sg28
I108750
sg29
g5
sg30
I431750
sg31
I0
sg32
g5
sg33
g5
sg34
I44093
sg35
g5
sg36
I83750
sg37
I431750
sg38
g8
(g12
S'\xe3<x\t\xe3]JA'
p857
tp858
Rp859
ssS'WINOKUR JR. HERBERT S'
p860
(dp861
g3
g5
sg4
g5
sg6
I1413
sg7
I0
sg18
I00
sg19
I-25000
sg20
g5
sg22
g5
sg23
g5
sg24
g5
sg25
g5
sg26
g5
sg27
g5
sg28
I108579
sg29
g5
sg30
g5
sg31
I0
sg32
g5
sg33
g5
sg34
g5
sg35
g5
sg36
I84992
sg37
g5
sg38
g8
(g12
S'\x84\xa8\xe86\xa0\xb1LA'
p862
tp863
Rp864
ssS'BROWN MICHAEL'
p865
(dp866
g3
I1486
sg4
g5
sg6
I49288
sg7
g8
(g12
S'\xb1\x13;\xb1\x13;\t@'
p867
tp868
Rp869
sg18
I00
sg19
g5
sg20
S'michael.brown@enron.com'
p870
sg22
g5
sg23
g5
sg24
I761
sg25
g5
sg26
I41
sg27
g5
sg28
g5
sg29
g5
sg30
g5
sg31
I0
sg32
I13
sg33
I1
sg34
g5
sg35
g5
sg36
I49288
sg37
g5
sg38
g8
(g12
S';\xed\xcdjk\xe1LA'
p871
tp872
Rp873
ssS'BADUM JAMES P'
p874
(dp875
g3
g5
sg4
I178980
sg6
I3486
sg7
I0
sg18
I00
sg19
g5
sg20
g5
sg22
g5
sg23
g5
sg24
g5
sg25
g5
sg26
g5
sg27
g5
sg28
g5
sg29
g5
sg30
I257817
sg31
I0
sg32
g5
sg33
g5
sg34
g5
sg35
g5
sg36
I182466
sg37
I257817
sg38
g8
(g12
S']\xccK\t~\xceJA'
p876
tp877
Rp878
ssS'HUGHES JAMES A'
p879
(dp880
g3
I719
sg4
g5
sg6
g5
sg7
g8
(g12
S'_\xf1\x15_\xf1\x15\xef?'
p881
tp882
Rp883
sg18
I00
sg19
g5
sg20
S'james.hughes@enron.com'
p884
sg22
g5
sg23
g5
sg24
I589
sg25
g5
sg26
I34
sg27
g5
sg28
g5
sg29
g5
sg30
I1118394
sg31
I0
sg32
I35
sg33
I5
sg34
I363428
sg35
g5
sg36
g5
sg37
I754966
sg38
g8
(g12
S'\xe4\xa1\xfc\xef\xc6\xafGA'
p885
tp886
Rp887
ssS'REYNOLDS LAWRENCE'
p888
(dp889
g3
g5
sg4
I51365
sg6
I8409
sg7
I0
sg18
I00
sg19
I-200000
sg20
g5
sg22
I156250
sg23
I-140264
sg24
g5
sg25
g5
sg26
g5
sg27
I202052
sg28
g5
sg29
I100000
sg30
I4221891
sg31
I0
sg32
g5
sg33
g5
sg34
I201483
sg35
I76399
sg36
I394475
sg37
I4160672
sg38
g8
(g12
S'\x8c\xeb\xdb\xb9\xec\x87!A'
p890
tp891
Rp892
ssS'DIMICHELE RICHARD G'
p893
(dp894
g3
g5
sg4
g5
sg6
I35812
sg7
I0
sg18
I00
sg19
g5
sg20
S'richard.dimichele@enron.com'
p895
sg22
I694862
sg23
g5
sg24
g5
sg25
g5
sg26
g5
sg27
I374689
sg28
g5
sg29
I1000000
sg30
I8317782
sg31
I0
sg32
g5
sg33
g5
sg34
I126027
sg35
I262788
sg36
I2368151
sg37
I8191755
sg38
g8
(g12
S'\x137\xa1\xbbd\rL\xc1'
p896
tp897
Rp898
ssS'BHATNAGAR SANJAY'
p899
(dp900
g3
I523
sg4
g5
sg6
g5
sg7
I0
sg18
I00
sg19
g5
sg20
S'sanjay.bhatnagar@enron.com'
p901
sg22
g5
sg23
I15456290
sg24
I463
sg25
g5
sg26
I29
sg27
I137864
sg28
I137864
sg29
g5
sS'total_stock_value'
p902
S'NaN'
p903
sg31
I0
sg32
I0
sg33
I1
sg34
I-2604490
sg35
g5
sg36
I15456290
sg37
I2604490
sg38
g8
(g12
S'\xd6?\xd6\xd4\xed\xc2[\xc1'
p904
tp905
Rp906
ssS'CARTER REBECCA C'
p907
(dp908
g3
I312
sg4
g5
sg6
g5
sg7
g8
(g12
S'\xdd\xd3\x08\xcb=\x8d\xe0?'
p909
tp910
Rp911
sg18
I00
sg19
I-159792
sg20
S'rebecca.carter@enron.com'
p912
sg22
I75000
sg23
I-307301
sg24
I196
sg25
g5
sg26
I15
sg27
I540
sg28
g5
sg29
I300000
sg30
g5
sg31
I0
sg32
I29
sg33
I7
sg34
I307301
sg35
I261809
sg36
I477557
sg37
g5
sg38
g8
(g12
S'\xbcD#\x7f-=JA'
p913
tp914
Rp915
ssS'BUCHANAN HAROLD G'
p916
(dp917
g3
I1088
sg4
g5
sg6
I600
sg7
I0
sg18
I00
sg19
g5
sg20
S'john.buchanan@enron.com'
p918
sg22
I304805
sg23
g5
sg24
I23
sg25
g5
sg26
I125
sg27
I1215
sg28
g5
sg29
I500000
sg30
I1014505
sg31
I0
sg32
I0
sg33
I0
sg34
I189041
sg35
I248017
sg36
I1054637
sg37
I825464
sg38
g8
(g12
S'\xa2\xbf\xb3g\x9c:BA'
p919
tp920
Rp921
ssS'YEAP SOON'
p922
(dp923
g3
g5
sg4
g5
sg6
I55097
sg7
I0
sg18
I00
sg19
g5
sg20
g5
sg22
g5
sg23
g5
sg24
g5
sg25
g5
sg26
g5
sg27
g5
sg28
g5
sg29
g5
sg30
I192758
sg31
I0
sg32
g5
sg33
g5
sg34
g5
sg35
g5
sg36
I55097
sg37
I192758
sg38
g8
(g12
S'\x13F\xed\xd4\x14\xd3KA'
p924
tp925
Rp926
ssS'MURRAY JULIA H'
p927
(dp928
g3
I2192
sg4
g5
sg6
I57580
sg7
g8
(g12
S']t\xd1E\x17]\x10@'
p929
tp930
Rp931
sg18
I00
sg19
g5
sg20
S'julia.murray@enron.com'
p932
sg22
I125000
sg23
g5
sg24
I395
sg25
g5
sg26
I45
sg27
I330
sg28
g5
sg29
I400000
sg30
I597461
sg31
I0
sg32
I11
sg33
I2
sg34
I196983
sg35
I229284
sg36
I812194
sg37
I400478
sg38
g8
(g12
S'\x9f\x89UT\xe4\xccEA'
p933
tp934
Rp935
ssS'GARLAND C KEVIN'
p936
(dp937
g3
I209
sg4
g5
sg6
I48405
sg7
g8
(g12
S'\x9a\x99\x99\x99\x99\x99\x11@'
p938
tp939
Rp940
sg18
I00
sg19
g5
sg20
S'kevin.garland@enron.com'
p941
sg22
I375304
sg23
g5
sg24
I178
sg25
g5
sg26
I44
sg27
I60814
sg28
g5
sg29
I850000
sg30
I896153
sg31
I0
sg32
I10
sg33
I27
sg34
I259907
sg35
I231946
sg36
I1566469
sg37
I636246
sg38
g8
(g12
S'\xa4\xda\xa4-\x96\x1a@A'
p942
tp943
Rp944
ssS'DODSON KEITH'
p945
(dp946
g3
I176
sg4
g5
sg6
I28164
sg7
g8
(g12
S'ffffff\xf6?'
p947
tp948
Rp949
sg18
I00
sg19
g5
sg20
S'keith.dodson@enron.com'
p950
sg22
g5
sg23
g5
sg24
I114
sg25
g5
sg26
I14
sg27
I774
sg28
g5
sg29
I70000
sg30
g5
sg31
I0
sg32
I10
sg33
I3
sg34
g5
sg35
I221003
sg36
I319941
sg37
g5
sg38
g8
(g12
S'^\x15j\xc5\x0enKA'
p951
tp952
Rp953
ssS'YEAGER F SCOTT'
p954
(dp955
g3
g5
sg4
g5
sg6
I53947
sg7
I0
sg18
I01
sg19
g5
sg20
S'scott.yeager@enron.com'
p956
sg22
g5
sg23
g5
sg24
g5
sg25
g5
sg26
g5
sg27
I147950
sg28
g5
sg29
g5
sg30
I11884758
sg31
I0
sg32
g5
sg33
g5
sg34
I3576206
sg35
I158403
sg36
I360300
sg37
I8308552
sg38
g8
(g12
S'\x8e\xbb\x8f\xdf0%O\xc1'
p957
tp958
Rp959
ssS'HIRKO JOSEPH'
p960
(dp961
g3
g5
sg4
I10259
sg6
I77978
sg7
I0
sg18
I01
sg19
g5
sg20
S'joe.hirko@enron.com'
p962
sg22
g5
sg23
g5
sg24
g5
sg25
g5
sg26
g5
sg27
I2856
sg28
g5
sg29
g5
sg30
I30766064
sg31
I0
sg32
g5
sg33
g5
sg34
g5
sg35
g5
sg36
I91093
sg37
I30766064
sg38
g8
(g12
S'\x82\xa6\xb0]\xf7\xe1p\xc1'
p963
tp964
Rp965
ssS'DIETRICH JANET R'
p966
(dp967
g3
I2572
sg4
g5
sg6
I3475
sg7
g8
(g12
S'\x1d>\x96\xddxp\xca?'
p968
tp969
Rp970
sg18
I00
sg19
g5
sg20
S'janet.dietrich@enron.com'
p971
sg22
I556416
sg23
g5
sg24
I1902
sg25
g5
sg26
I63
sg27
I473
sg28
g5
sg29
I600000
sg30
I1865087
sg31
I0
sg32
I305
sg33
I14
sg34
I315068
sg35
I250100
sg36
I1410464
sg37
I1550019
sg38
g8
(g12
S'\xec\x1b\x94\x04&\xdd7A'
p972
tp973
Rp974
ssS'DERRICK JR. JAMES V'
p975
(dp976
g3
I2181
sg4
g5
sg6
I51124
sg7
g8
(g12
S'\x00\x00\x00\x00\x00h,@'
p977
tp978
Rp979
sg18
I00
sg19
I-1284000
sg20
S'james.derrick@enron.com'
p980
sg22
I484000
sg23
I-1787380
sg24
I1401
sg25
g5
sg26
I909
sg27
I7482
sg28
g5
sg29
I800000
sg30
I8831913
sg31
I0
sg32
I64
sg33
I20
sg34
I1787380
sg35
I492375
sg36
I550981
sg37
I8831913
sg38
g8
(g12
S'\xd6J\xb5\x93\xc4\xb7F\xc1'
p981
tp982
Rp983
ssS'FREVERT MARK A'
p984
(dp985
g3
I3275
sg4
I6426990
sg6
I86987
sg7
g8
(g12
S'}\xad\x9e\x1d\x027\xb6?'
p986
tp987
Rp988
sg18
I00
sg19
I-3367011
sg20
S'mark.frevert@enron.com'
p989
sg22
I1617011
sg23
g5
sg24
I2979
sg25
I2000000
sg26
I21
sg27
I7427621
sg28
g5
sg29
I2000000
sg30
I14622185
sg31
I0
sg32
I242
sg33
I6
sg34
I4188667
sg35
I1060932
sg36
I17252530
sg37
I10433518
sg38
g8
(g12
S'zba<\xd2Lr\xc1'
p990
tp991
Rp992
ssS'PAI LOU L'
p993
(dp994
g3
g5
sg4
g5
sg6
I32047
sg7
I0
sg18
I00
sg19
g5
sg20
S'lou.pai@enron.com'
p995
sg22
g5
sg23
g5
sg24
g5
sg25
g5
sg26
g5
sg27
I1829457
sg28
g5
sg29
I1000000
sg30
I23817930
sg31
I0
sg32
g5
sg33
g5
sg34
I8453763
sg35
I261879
sg36
I3123383
sg37
I15364167
sg38
g8
(g12
S'\xf8qZY\x11\xeai\xc1'
p996
tp997
Rp998
ssS'BAY FRANKLIN R'
p999
(dp1000
g3
g5
sg4
I260455
sg6
I129142
sg7
I0
sg18
I00
sg19
I-201641
sg20
S'frank.bay@enron.com'
p1001
sg22
g5
sg23
I-82782
sg24
g5
sg25
g5
sg26
g5
sg27
I69
sg28
g5
sg29
I400000
sg30
I63014
sg31
I0
sg32
g5
sg33
g5
sg34
I145796
sg35
I239671
sg36
I827696
sg37
g5
sg38
g8
(g12
S'\x08\xbe\r\xef\x13PHA'
p1002
tp1003
Rp1004
ssS'HAYSLETT RODERICK J'
p1005
(dp1006
g3
I2649
sg4
g5
sg6
g5
sg7
g8
(g12
S'\x07uP\x07uP>@'
p1007
tp1008
Rp1009
sg18
I00
sg19
g5
sg20
S'rod.hayslett@enron.com'
p1010
sg22
g5
sg23
g5
sg24
I571
sg25
g5
sg26
I1061
sg27
g5
sg28
g5
sg29
g5
sg30
I346663
sg31
I0
sg32
I35
sg33
I38
sg34
I346663
sg35
g5
sg36
g5
sg37
g5
sg38
g8
(g12
S'\xcakzR2\xc5KA'
p1011
tp1012
Rp1013
ssS'FUGH JOHN L'
p1014
(dp1015
g3
g5
sg4
I50591
sg6
g5
sg7
I0
sg18
I00
sg19
g5
sg20
g5
sg22
g5
sg23
g5
sg24
g5
sg25
g5
sg26
g5
sg27
g5
sg28
g5
sg29
g5
sg30
I176378
sg31
I0
sg32
g5
sg33
g5
sg34
g5
sg35
g5
sg36
I50591
sg37
I176378
sg38
g8
(g12
S'\x1a\xd7Vt\xc7\xeeKA'
p1016
tp1017
Rp1018
ssS'FALLON JAMES B'
p1019
(dp1020
g3
I1755
sg4
g5
sg6
I95924
sg7
g8
(g12
S'%I\x92$I\x92\xfc?'
p1021
tp1022
Rp1023
sg18
I00
sg19
g5
sg20
S'jim.fallon@enron.com'
p1024
sg22
I374347
sg23
g5
sg24
I1604
sg25
g5
sg26
I75
sg27
I401481
sg28
g5
sg29
I2500000
sg30
I2332399
sg31
I0
sg32
I42
sg33
I37
sg34
I1392142
sg35
I304588
sg36
I3676340
sg37
I940257
sg38
g8
(g12
S'\x0c\x87!y\x0f&\r\xc1'
p1025
tp1026
Rp1027
ssS'KOENIG MARK E'
p1028
(dp1029
g3
I2374
sg4
g5
sg6
I127017
sg7
g8
(g12
S'\x18oe\x9fCj\xf2?'
p1030
tp1031
Rp1032
sg18
I01
sg19
g5
sg20
S'mark.koenig@enron.com'
p1033
sg22
I300000
sg23
g5
sg24
I2271
sg25
g5
sg26
I61
sg27
I150458
sg28
g5
sg29
I700000
sg30
I1920055
sg31
g8
(g12
S'\x00\x00\x00\x00\x00\x8c\xa2@'
p1034
tp1035
Rp1036
sg32
I53
sg33
I15
sg34
I1248318
sg35
I309946
sg36
I1587421
sg37
I671737
sg38
g8
(g12
S'\xbf/~\xf5*\xdc7A'
p1037
tp1038
Rp1039
ssS'SAVAGE FRANK'
p1040
(dp1041
g3
g5
sg4
g5
sg6
g5
sg7
I0
sg18
I00
sg19
I-121284
sg20
g5
sg22
g5
sg23
g5
sg24
g5
sg25
g5
sg26
g5
sg27
g5
sg28
I125034
sg29
g5
sg30
g5
sg31
I0
sg32
g5
sg33
g5
sg34
g5
sg35
g5
sg36
I3750
sg37
g5
sg38
g8
(g12
S'QJ\x9b`\x88\x1cMA'
p1042
tp1043
Rp1044
ssS'IZZO LAWRENCE L'
p1045
(dp1046
g3
I496
sg4
g5
sg6
I28093
sg7
g8
(g12
S'n\xdb\xb6m\xdb\xb6\xe5?'
p1047
tp1048
Rp1049
sg18
I00
sg19
g5
sg20
S'larry.izzo@enron.com'
p1050
sg22
I312500
sg23
g5
sg24
I437
sg25
g5
sg26
I19
sg27
I1553729
sg28
g5
sg29
g5
sg30
I5819980
sg31
I0
sg32
I28
sg33
I5
sg34
I3654808
sg35
I85274
sg36
I1979596
sg37
I2165172
sg38
g8
(g12
S'R\x93\xd3(\x16\x140\xc1'
p1051
tp1052
Rp1053
ssS'TILNEY ELIZABETH A'
p1054
(dp1055
g3
I460
sg4
g5
sg6
g5
sg7
g8
(g12
S'ffffff\xfe?'
p1056
tp1057
Rp1058
sg18
I00
sg19
I-575000
sg20
S'elizabeth.tilney@enron.com'
p1059
sg22
I275000
sg23
g5
sg24
I379
sg25
g5
sg26
I19
sg27
I152055
sg28
g5
sg29
I300000
sg30
I1168042
sg31
I0
sg32
I10
sg33
I11
sg34
I576792
sg35
I247338
sg36
I399393
sg37
I591250
sg38
g8
(g12
S'\xa8\xb1X\xa2\xe5SEA'
p1060
tp1061
Rp1062
ssS'MARTIN AMANDA K'
p1063
(dp1064
g3
I1522
sg4
I85430
sg6
I8211
sg7
g8
(g12
S'\x00\x00\x00\x00\x00\xc0<@'
p1065
tp1066
Rp1067
sg18
I00
sg19
g5
sg20
S'a..martin@enron.com'
p1068
sg22
I5145434
sg23
g5
sg24
I477
sg25
g5
sg26
I230
sg27
I2818454
sg28
g5
sg29
g5
sg30
I2070306
sg31
I0
sg32
I8
sg33
I0
sg34
g5
sg35
I349487
sg36
I8407016
sg37
I2070306
sg38
g8
(g12
S'c:\xe7\xc1"OL\xc1'
p1069
tp1070
Rp1071
ssS'BUY RICHARD B'
p1072
(dp1073
g3
I3523
sg4
I649584
sg6
g5
sg7
g8
(g12
S'\x00\x00\x00\x00\x00\x00\x1b@'
p1074
tp1075
Rp1076
sg18
I00
sg19
I-694862
sg20
S'rick.buy@enron.com'
p1077
sg22
I769862
sg23
g5
sg24
I2333
sg25
g5
sg26
I1053
sg27
I400572
sg28
g5
sg29
I900000
sg30
I3444470
sg31
I0
sg32
I156
sg33
I71
sg34
I901657
sg35
I330546
sg36
I2355702
sg37
I2542813
sg38
g8
(g12
S'\xf2:\xae\xc2Y\xc8\x00\xc1'
p1078
tp1079
Rp1080
ssS'GRAMM WENDY L'
p1081
(dp1082
g3
g5
sg4
g5
sg6
g5
sg7
I0
sg18
I00
sg19
g5
sg20
g5
sg22
g5
sg23
g5
sg24
g5
sg25
g5
sg26
g5
sg27
g5
sg28
I119292
sg29
g5
sg30
g5
sg31
I0
sg32
g5
sg33
g5
sg34
g5
sg35
g5
sg36
I119292
sg37
g5
sg38
g8
(g12
S'\xa9\xcfZ\xe0I\x84LA'
p1083
tp1084
Rp1085
ssS'CAUSEY RICHARD A'
p1086
(dp1087
g3
I1892
sg4
g5
sg6
I30674
sg7
g8
(g12
S'>\x8d\xb0\xdc\xd3\x08\xeb?'
p1088
tp1089
Rp1090
sg18
I01
sg19
I-235000
sg20
S'richard.causey@enron.com'
p1091
sg22
I350000
sg23
g5
sg24
I1585
sg25
g5
sg26
I49
sg27
I307895
sg28
g5
sg29
I1000000
sg30
I2502063
sg31
g8
(g12
S'\x00\x00\x00\x00\x00\x90\x9d@'
p1092
tp1093
Rp1094
sg32
I58
sg33
I12
sg34
I2502063
sg35
I415189
sg36
I1868758
sg37
g5
sg38
g8
(g12
S'\x07\xfc_6M\xb71A'
p1095
tp1096
Rp1097
ssS'TAYLOR MITCHELL S'
p1098
(dp1099
g3
I533
sg4
I227449
sg6
g5
sg7
I0
sg18
I00
sg19
g5
sg20
S'mitchell.taylor@enron.com'
p1100
sg22
g5
sg23
g5
sg24
I300
sg25
g5
sg26
I29
sg27
g5
sg28
g5
sg29
I600000
sg30
I3745048
sg31
I0
sg32
I0
sg33
I0
sg34
I563798
sg35
I265214
sg36
I1092663
sg37
I3181250
sg38
g8
(g12
S'x\xbd\xa0&\xf6\x1c A'
p1101
tp1102
Rp1103
ssS'DONAHUE JR JEFFREY M'
p1104
(dp1105
g3
I865
sg4
g5
sg6
I96268
sg7
g8
(g12
S'x6\xea;\x1b\xf5\xbd?'
p1106
tp1107
Rp1108
sg18
I00
sg19
I-300000
sg20
S'jeff.donahue@enron.com'
p1109
sg22
g5
sg23
g5
sg24
I772
sg25
g5
sg26
I22
sg27
I891
sg28
g5
sg29
I800000
sg30
I1080988
sg31
I0
sg32
I188
sg33
I11
sg34
I315068
sg35
I278601
sg36
I875760
sg37
I765920
sg38
g8
(g12
S'(\xbf\x01OP\xe7BA'
p1110
tp1111
Rp1112
ssS'GLISAN JR BEN F'
p1113
(dp1114
g3
I873
sg4
g5
sg6
I125978
sg7
g8
(g12
S'\x14;\xb1\x13;\xb1\xd3?'
p1115
tp1116
Rp1117
sg18
I01
sg19
g5
sg20
S'ben.glisan@enron.com'
p1118
sg22
I71023
sg23
g5
sg24
I874
sg25
g5
sg26
I16
sg27
I200308
sg28
g5
sg29
I600000
sg30
I778546
sg31
g8
(g12
S'\x00\x00\x00\x00\x00H\x8b@'
p1119
tp1120
Rp1121
sg32
I52
sg33
I6
sg34
I393818
sg35
I274975
sg36
I1272284
sg37
I384728
sg38
g8
(g12
S'4\xad\xea{d\x87BA'
p1122
tp1123
Rp1124
ss.